target datalayout = "e-m:e-p270:32:32-p271:32:32-p272:64:64-i64:64-i128:128-f80:128-n8:16:32:64-S128"
target triple = "x86_64-pc-linux-gnu"

@byte_map = internal global [1 x i32] zeroinitializer, align 4
@machine_endian_short_map = internal global [2 x i32] zeroinitializer, align 4
@big_endian_short_map = internal global [2 x i32] zeroinitializer, align 4
@little_endian_short_map = internal global [2 x i32] zeroinitializer, align 4
@int_map = internal global [4 x i32] zeroinitializer, align 16
@machine_endian_long_map = internal global [4 x i32] zeroinitializer, align 16
@big_endian_long_map = internal global [4 x i32] zeroinitializer, align 16
@little_endian_long_map = internal global [4 x i32] zeroinitializer, align 16
@machine_endian_longlong_map = internal global [8 x i32] zeroinitializer, align 16
@big_endian_longlong_map = internal global [8 x i32] zeroinitializer, align 16
@little_endian_longlong_map = internal global [8 x i32] zeroinitializer, align 16

; Function Attrs: nounwind uwtable
define hidden i32 @zm_startup_pack(i32 noundef %0, i32 noundef %1) #0 {
  %3 = alloca i32, align 4
  %4 = alloca i32, align 4
  %5 = alloca i32, align 4
  store i32 %0, ptr %3, align 4
  store i32 %1, ptr %4, align 4
  store i32 0, ptr @byte_map, align 4
  store i32 0, ptr %5, align 4
  br label %6

6:                                                ; preds = %14, %2
  %7 = load i32, ptr %5, align 4
  %8 = icmp slt i32 %7, 4
  br i1 %8, label %9, label %17

9:                                                ; preds = %6
  %10 = load i32, ptr %5, align 4
  %11 = load i32, ptr %5, align 4
  %12 = sext i32 %11 to i64
  %13 = getelementptr inbounds [4 x i32], ptr @int_map, i64 0, i64 %12
  store i32 %10, ptr %13, align 4
  br label %14

14:                                               ; preds = %9
  %15 = load i32, ptr %5, align 4
  %16 = add nsw i32 %15, 1
  store i32 %16, ptr %5, align 4
  br label %6

17:                                               ; preds = %6
  store i32 0, ptr @machine_endian_short_map, align 4
  store i32 1, ptr getelementptr inbounds ([2 x i32], ptr @machine_endian_short_map, i64 0, i64 1), align 4
  store i32 1, ptr @big_endian_short_map, align 4
  store i32 0, ptr getelementptr inbounds ([2 x i32], ptr @big_endian_short_map, i64 0, i64 1), align 4
  store i32 0, ptr @little_endian_short_map, align 4
  store i32 1, ptr getelementptr inbounds ([2 x i32], ptr @little_endian_short_map, i64 0, i64 1), align 4
  store i32 0, ptr @machine_endian_long_map, align 16
  store i32 1, ptr getelementptr inbounds ([4 x i32], ptr @machine_endian_long_map, i64 0, i64 1), align 4
  store i32 2, ptr getelementptr inbounds ([4 x i32], ptr @machine_endian_long_map, i64 0, i64 2), align 8
  store i32 3, ptr getelementptr inbounds ([4 x i32], ptr @machine_endian_long_map, i64 0, i64 3), align 4
  store i32 3, ptr @big_endian_long_map, align 16
  store i32 2, ptr getelementptr inbounds ([4 x i32], ptr @big_endian_long_map, i64 0, i64 1), align 4
  store i32 1, ptr getelementptr inbounds ([4 x i32], ptr @big_endian_long_map, i64 0, i64 2), align 8
  store i32 0, ptr getelementptr inbounds ([4 x i32], ptr @big_endian_long_map, i64 0, i64 3), align 4
  store i32 0, ptr @little_endian_long_map, align 16
  store i32 1, ptr getelementptr inbounds ([4 x i32], ptr @little_endian_long_map, i64 0, i64 1), align 4
  store i32 2, ptr getelementptr inbounds ([4 x i32], ptr @little_endian_long_map, i64 0, i64 2), align 8
  store i32 3, ptr getelementptr inbounds ([4 x i32], ptr @little_endian_long_map, i64 0, i64 3), align 4
  store i32 0, ptr @machine_endian_longlong_map, align 16
  store i32 1, ptr getelementptr inbounds ([8 x i32], ptr @machine_endian_longlong_map, i64 0, i64 1), align 4
  store i32 2, ptr getelementptr inbounds ([8 x i32], ptr @machine_endian_longlong_map, i64 0, i64 2), align 8
  store i32 3, ptr getelementptr inbounds ([8 x i32], ptr @machine_endian_longlong_map, i64 0, i64 3), align 4
  store i32 4, ptr getelementptr inbounds ([8 x i32], ptr @machine_endian_longlong_map, i64 0, i64 4), align 16
  store i32 5, ptr getelementptr inbounds ([8 x i32], ptr @machine_endian_longlong_map, i64 0, i64 5), align 4
  store i32 6, ptr getelementptr inbounds ([8 x i32], ptr @machine_endian_longlong_map, i64 0, i64 6), align 8
  store i32 7, ptr getelementptr inbounds ([8 x i32], ptr @machine_endian_longlong_map, i64 0, i64 7), align 4
  store i32 7, ptr @big_endian_longlong_map, align 16
  store i32 6, ptr getelementptr inbounds ([8 x i32], ptr @big_endian_longlong_map, i64 0, i64 1), align 4
  store i32 5, ptr getelementptr inbounds ([8 x i32], ptr @big_endian_longlong_map, i64 0, i64 2), align 8
  store i32 4, ptr getelementptr inbounds ([8 x i32], ptr @big_endian_longlong_map, i64 0, i64 3), align 4
  store i32 3, ptr getelementptr inbounds ([8 x i32], ptr @big_endian_longlong_map, i64 0, i64 4), align 16
  store i32 2, ptr getelementptr inbounds ([8 x i32], ptr @big_endian_longlong_map, i64 0, i64 5), align 4
  store i32 1, ptr getelementptr inbounds ([8 x i32], ptr @big_endian_longlong_map, i64 0, i64 6), align 8
  store i32 0, ptr getelementptr inbounds ([8 x i32], ptr @big_endian_longlong_map, i64 0, i64 7), align 4
  store i32 0, ptr @little_endian_longlong_map, align 16
  store i32 1, ptr getelementptr inbounds ([8 x i32], ptr @little_endian_longlong_map, i64 0, i64 1), align 4
  store i32 2, ptr getelementptr inbounds ([8 x i32], ptr @little_endian_longlong_map, i64 0, i64 2), align 8
  store i32 3, ptr getelementptr inbounds ([8 x i32], ptr @little_endian_longlong_map, i64 0, i64 3), align 4
  store i32 4, ptr getelementptr inbounds ([8 x i32], ptr @little_endian_longlong_map, i64 0, i64 4), align 16
  store i32 5, ptr getelementptr inbounds ([8 x i32], ptr @little_endian_longlong_map, i64 0, i64 5), align 4
  store i32 6, ptr getelementptr inbounds ([8 x i32], ptr @little_endian_longlong_map, i64 0, i64 6), align 8
  store i32 7, ptr getelementptr inbounds ([8 x i32], ptr @little_endian_longlong_map, i64 0, i64 7), align 4
  ret i32 0
}