; Function Attrs: nofree norecurse nosync nounwind memory(write, argmem: none, inaccessiblemem: none) uwtable
define hidden noundef i32 @zm_startup_pack(i32 noundef %0, i32 noundef %1) local_unnamed_addr #8 {
  br label %3

3:                                                ; preds = %2, %3
  %indvars.iv = phi i64 [ 0, %2 ], [ %indvars.iv.next, %3 ]
  %4 = getelementptr inbounds [4 x i32], ptr @int_map, i64 0, i64 %indvars.iv
  %5 = trunc i64 %indvars.iv to i32
  store i32 %5, ptr %4, align 4
  %indvars.iv.next = add nuw nsw i64 %indvars.iv, 1
  %exitcond.not = icmp eq i64 %indvars.iv.next, 4
  br i1 %exitcond.not, label %6, label %3

6:                                                ; preds = %3
  store i32 0, ptr @machine_endian_short_map, align 4
  store i32 1, ptr getelementptr inbounds ([2 x i32], ptr @machine_endian_short_map, i64 0, i64 1), align 4
  store i32 1, ptr @big_endian_short_map, align 4
  store i32 0, ptr getelementptr inbounds ([2 x i32], ptr @big_endian_short_map, i64 0, i64 1), align 4
  store i32 0, ptr @little_endian_short_map, align 4
  store i32 1, ptr getelementptr inbounds ([2 x i32], ptr @little_endian_short_map, i64 0, i64 1), align 4
  store <4 x i32> <i32 0, i32 1, i32 2, i32 3>, ptr @machine_endian_long_map, align 16
  store <4 x i32> <i32 3, i32 2, i32 1, i32 0>, ptr @big_endian_long_map, align 16
  store <4 x i32> <i32 0, i32 1, i32 2, i32 3>, ptr @little_endian_long_map, align 16
  store <4 x i32> <i32 0, i32 1, i32 2, i32 3>, ptr @machine_endian_longlong_map, align 16
  store <4 x i32> <i32 4, i32 5, i32 6, i32 7>, ptr getelementptr inbounds ([8 x i32], ptr @machine_endian_longlong_map, i64 0, i64 4), align 16
  store <4 x i32> <i32 7, i32 6, i32 5, i32 4>, ptr @big_endian_longlong_map, align 16
  store <4 x i32> <i32 3, i32 2, i32 1, i32 0>, ptr getelementptr inbounds ([8 x i32], ptr @big_endian_longlong_map, i64 0, i64 4), align 16
  store <4 x i32> <i32 0, i32 1, i32 2, i32 3>, ptr @little_endian_longlong_map, align 16
  store <4 x i32> <i32 4, i32 5, i32 6, i32 7>, ptr getelementptr inbounds ([8 x i32], ptr @little_endian_longlong_map, i64 0, i64 4), align 16
  ret i32 0
}